target datalayout = "e-m:e-p270:32:32-p271:32:32-p272:64:64-i64:64-i128:128-f80:128-n8:16:32:64-S128"
target triple = "x86_64-pc-linux-gnu"

%"class.LIEF::ELF::SymbolVersion" = type { %"class.LIEF::Object", i16, ptr }
%"class.LIEF::Object" = type { ptr }
%"class.LIEF::ELF::SymbolVersionAuxRequirement" = type { %"class.LIEF::ELF::SymbolVersionAux", i32, i16, i16 }
%"class.LIEF::ELF::SymbolVersionAux" = type { %"class.LIEF::Object", %"class.std::__cxx11::basic_string" }
%"class.std::__cxx11::basic_string" = type { %"struct.std::__cxx11::basic_string<char>::_Alloc_hider", i64, %union.anon }
%"struct.std::__cxx11::basic_string<char>::_Alloc_hider" = type { ptr }
%union.anon = type { i64, [8 x i8] }

; Function Attrs: mustprogress nounwind uwtable
define linkonce_odr hidden noundef zeroext i16 @_ZNK4LIEF3ELF27SymbolVersionAuxRequirement5otherEv(ptr noundef nonnull align 8 dereferenceable(48) %0) #0 comdat align 2 {
  %2 = alloca ptr, align 8
  store ptr %0, ptr %2, align 8, !tbaa !8
  %3 = load ptr, ptr %2, align 8
  %4 = getelementptr inbounds nuw %"class.LIEF::ELF::SymbolVersionAuxRequirement", ptr %3, i32 0, i32 3
  %5 = load i16, ptr %4, align 2, !tbaa !16
  ret i16 %5
}

; Function Attrs: mustprogress nounwind uwtable
define void @_ZN4LIEF3ELF13SymbolVersion24symbol_version_auxiliaryERNS0_27SymbolVersionAuxRequirementE(ptr noundef nonnull align 8 dereferenceable(24) %0, ptr noundef nonnull align 8 dereferenceable(48) %1) #0 align 2 {
  %3 = alloca ptr, align 8
  %4 = alloca ptr, align 8
  store ptr %0, ptr %3, align 8, !tbaa !3
  store ptr %1, ptr %4, align 8, !tbaa !8
  %5 = load ptr, ptr %3, align 8
  %6 = load ptr, ptr %4, align 8, !tbaa !8
  %7 = getelementptr inbounds nuw %"class.LIEF::ELF::SymbolVersion", ptr %5, i32 0, i32 2
  store ptr %6, ptr %7, align 8, !tbaa !10
  %8 = load ptr, ptr %4, align 8, !tbaa !8
  %9 = call noundef zeroext i16 @_ZNK4LIEF3ELF27SymbolVersionAuxRequirement5otherEv(ptr noundef nonnull align 8 dereferenceable(48) %8)
  %10 = getelementptr inbounds nuw %"class.LIEF::ELF::SymbolVersion", ptr %5, i32 0, i32 1
  store i16 %9, ptr %10, align 8, !tbaa !15
  ret void
}