; Function Attrs: mustprogress nofree norecurse nosync nounwind willreturn memory(argmem: readwrite) uwtable
define void @_ZN4LIEF3ELF13SymbolVersion24symbol_version_auxiliaryERNS0_27SymbolVersionAuxRequirementE(ptr noundef nonnull writeonly align 8 captures(none) dereferenceable(24) initializes((8, 10), (16, 24)) %0, ptr noundef nonnull align 8 dereferenceable(48) %1) local_unnamed_addr #0 align 2 {
  %3 = getelementptr inbounds nuw i8, ptr %0, i64 16
  store ptr %1, ptr %3, align 8, !tbaa !3
  %4 = getelementptr inbounds nuw i8, ptr %1, i64 46
  %5 = load i16, ptr %4, align 2, !tbaa !11
  %6 = getelementptr inbounds nuw i8, ptr %0, i64 8
  store i16 %5, ptr %6, align 8, !tbaa !19
  ret void
}